target datalayout = "e-m:e-p270:32:32-p271:32:32-p272:64:64-i64:64-i128:128-f80:128-n8:16:32:64-S128"
target triple = "x86_64-pc-linux-gnu"

%struct._object = type { %union.anon, ptr }
%union.anon = type { i64 }
%struct.PyVarObject = type { %struct._object, i64 }
%struct._typeobject = type { %struct.PyVarObject, ptr, i64, i64, ptr, i64, ptr, ptr, ptr, ptr, ptr, ptr, ptr, ptr, ptr, ptr, ptr, ptr, ptr, i64, ptr, ptr, ptr, ptr, i64, ptr, ptr, ptr, ptr, ptr, ptr, ptr, ptr, ptr, i64, ptr, ptr, ptr, ptr, ptr, ptr, ptr, ptr, ptr, ptr, ptr, i32, ptr, ptr, i8, i16 }

@_Py_NoneStruct = external global %struct._object, align 8
@PyExc_TypeError = external global ptr, align 8
@sys_set_asyncgen_hooks.keywords = internal global [3 x ptr] [ptr @.str.131, ptr @.str.132, ptr null], align 16
@.str.133 = private unnamed_addr constant [4 x i8] c"|OO\00", align 1
@.str.134 = private unnamed_addr constant [39 x i8] c"callable finalizer expected, got %.50s\00", align 1
@.str.135 = private unnamed_addr constant [39 x i8] c"callable firstiter expected, got %.50s\00", align 1

; Function Attrs: inlinehint nounwind uwtable
define internal ptr @_Py_TYPE(ptr noundef %0) #3 {
  %2 = alloca ptr, align 8
  store ptr %0, ptr %2, align 8, !tbaa !9
  %3 = load ptr, ptr %2, align 8, !tbaa !9
  %4 = getelementptr inbounds nuw %struct._object, ptr %3, i32 0, i32 1
  %5 = load ptr, ptr %4, align 8, !tbaa !206
  ret ptr %5
}

; Function Attrs: nounwind uwtable
define internal ptr @sys_set_asyncgen_hooks(ptr noundef %0, ptr noundef %1, ptr noundef %2) #0 {
  %4 = alloca ptr, align 8
  %5 = alloca ptr, align 8
  %6 = alloca ptr, align 8
  %7 = alloca ptr, align 8
  %8 = alloca ptr, align 8
  %9 = alloca ptr, align 8
  %10 = alloca i32, align 4
  %11 = alloca ptr, align 8
  store ptr %0, ptr %5, align 8, !tbaa !9
  store ptr %1, ptr %6, align 8, !tbaa !9
  store ptr %2, ptr %7, align 8, !tbaa !9
  call void @llvm.lifetime.start.p0(i64 8, ptr %8) #12
  store ptr null, ptr %8, align 8, !tbaa !9
  call void @llvm.lifetime.start.p0(i64 8, ptr %9) #12
  store ptr null, ptr %9, align 8, !tbaa !9
  %12 = load ptr, ptr %6, align 8, !tbaa !9
  %13 = load ptr, ptr %7, align 8, !tbaa !9
  %14 = call i32 (ptr, ptr, ptr, ptr, ...) @PyArg_ParseTupleAndKeywords(ptr noundef %12, ptr noundef %13, ptr noundef @.str.133, ptr noundef @sys_set_asyncgen_hooks.keywords, ptr noundef %8, ptr noundef %9)
  %15 = icmp ne i32 %14, 0
  br i1 %15, label %17, label %16

16:                                               ; preds = %3
  store ptr null, ptr %4, align 8
  store i32 1, ptr %10, align 4
  br label %99

17:                                               ; preds = %3
  %18 = load ptr, ptr %9, align 8, !tbaa !9
  %19 = icmp ne ptr %18, null
  br i1 %19, label %20, label %35

20:                                               ; preds = %17
  %21 = load ptr, ptr %9, align 8, !tbaa !9
  %22 = icmp ne ptr %21, @_Py_NoneStruct
  br i1 %22, label %23, label %35

23:                                               ; preds = %20
  %24 = load ptr, ptr %9, align 8, !tbaa !9
  %25 = call i32 @PyCallable_Check(ptr noundef %24)
  %26 = icmp ne i32 %25, 0
  br i1 %26, label %34, label %27

27:                                               ; preds = %23
  %28 = load ptr, ptr @PyExc_TypeError, align 8, !tbaa !9
  %29 = load ptr, ptr %9, align 8, !tbaa !9
  %30 = call ptr @_Py_TYPE(ptr noundef %29)
  %31 = getelementptr inbounds nuw %struct._typeobject, ptr %30, i32 0, i32 1
  %32 = load ptr, ptr %31, align 8, !tbaa !198
  %33 = call ptr (ptr, ptr, ...) @PyErr_Format(ptr noundef %28, ptr noundef @.str.134, ptr noundef %32)
  store ptr null, ptr %4, align 8
  store i32 1, ptr %10, align 4
  br label %99

34:                                               ; preds = %23
  br label %35

35:                                               ; preds = %34, %20, %17
  %36 = load ptr, ptr %8, align 8, !tbaa !9
  %37 = icmp ne ptr %36, null
  br i1 %37, label %38, label %53

38:                                               ; preds = %35
  %39 = load ptr, ptr %8, align 8, !tbaa !9
  %40 = icmp ne ptr %39, @_Py_NoneStruct
  br i1 %40, label %41, label %53

41:                                               ; preds = %38
  %42 = load ptr, ptr %8, align 8, !tbaa !9
  %43 = call i32 @PyCallable_Check(ptr noundef %42)
  %44 = icmp ne i32 %43, 0
  br i1 %44, label %52, label %45

45:                                               ; preds = %41
  %46 = load ptr, ptr @PyExc_TypeError, align 8, !tbaa !9
  %47 = load ptr, ptr %8, align 8, !tbaa !9
  %48 = call ptr @_Py_TYPE(ptr noundef %47)
  %49 = getelementptr inbounds nuw %struct._typeobject, ptr %48, i32 0, i32 1
  %50 = load ptr, ptr %49, align 8, !tbaa !198
  %51 = call ptr (ptr, ptr, ...) @PyErr_Format(ptr noundef %46, ptr noundef @.str.135, ptr noundef %50)
  store ptr null, ptr %4, align 8
  store i32 1, ptr %10, align 4
  br label %99

52:                                               ; preds = %41
  br label %53

53:                                               ; preds = %52, %38, %35
  call void @llvm.lifetime.start.p0(i64 8, ptr %11) #12
  %54 = call ptr @_PyEval_GetAsyncGenFinalizer()
  store ptr %54, ptr %11, align 8, !tbaa !9
  %55 = load ptr, ptr %9, align 8, !tbaa !9
  %56 = icmp ne ptr %55, null
  br i1 %56, label %57, label %66

57:                                               ; preds = %53
  %58 = load ptr, ptr %9, align 8, !tbaa !9
  %59 = icmp ne ptr %58, @_Py_NoneStruct
  br i1 %59, label %60, label %66

60:                                               ; preds = %57
  %61 = load ptr, ptr %9, align 8, !tbaa !9
  %62 = call i32 @_PyEval_SetAsyncGenFinalizer(ptr noundef %61)
  %63 = icmp slt i32 %62, 0
  br i1 %63, label %64, label %65

64:                                               ; preds = %60
  store ptr null, ptr %4, align 8
  store i32 1, ptr %10, align 4
  br label %98

65:                                               ; preds = %60
  br label %74

66:                                               ; preds = %57, %53
  %67 = load ptr, ptr %9, align 8, !tbaa !9
  %68 = icmp eq ptr %67, @_Py_NoneStruct
  br i1 %68, label %69, label %73

69:                                               ; preds = %66
  %70 = call i32 @_PyEval_SetAsyncGenFinalizer(ptr noundef null)
  %71 = icmp slt i32 %70, 0
  br i1 %71, label %72, label %73

72:                                               ; preds = %69
  store ptr null, ptr %4, align 8
  store i32 1, ptr %10, align 4
  br label %98

73:                                               ; preds = %69, %66
  br label %74

74:                                               ; preds = %73, %65
  %75 = load ptr, ptr %8, align 8, !tbaa !9
  %76 = icmp ne ptr %75, null
  br i1 %76, label %77, label %86

77:                                               ; preds = %74
  %78 = load ptr, ptr %8, align 8, !tbaa !9
  %79 = icmp ne ptr %78, @_Py_NoneStruct
  br i1 %79, label %80, label %86

80:                                               ; preds = %77
  %81 = load ptr, ptr %8, align 8, !tbaa !9
  %82 = call i32 @_PyEval_SetAsyncGenFirstiter(ptr noundef %81)
  %83 = icmp slt i32 %82, 0
  br i1 %83, label %84, label %85

84:                                               ; preds = %80
  br label %95

85:                                               ; preds = %80
  br label %94

86:                                               ; preds = %77, %74
  %87 = load ptr, ptr %8, align 8, !tbaa !9
  %88 = icmp eq ptr %87, @_Py_NoneStruct
  br i1 %88, label %89, label %93

89:                                               ; preds = %86
  %90 = call i32 @_PyEval_SetAsyncGenFirstiter(ptr noundef null)
  %91 = icmp slt i32 %90, 0
  br i1 %91, label %92, label %93

92:                                               ; preds = %89
  br label %95

93:                                               ; preds = %89, %86
  br label %94

94:                                               ; preds = %93, %85
  store ptr @_Py_NoneStruct, ptr %4, align 8
  store i32 1, ptr %10, align 4
  br label %98

95:                                               ; preds = %92, %84
  %96 = load ptr, ptr %11, align 8, !tbaa !9
  %97 = call i32 @_PyEval_SetAsyncGenFinalizer(ptr noundef %96)
  store ptr null, ptr %4, align 8
  store i32 1, ptr %10, align 4
  br label %98

98:                                               ; preds = %95, %94, %72, %64
  call void @llvm.lifetime.end.p0(i64 8, ptr %11) #12
  br label %99

99:                                               ; preds = %98, %45, %27, %16
  call void @llvm.lifetime.end.p0(i64 8, ptr %9) #12
  call void @llvm.lifetime.end.p0(i64 8, ptr %8) #12
  %100 = load ptr, ptr %4, align 8
  ret ptr %100
}