; Function Attrs: nounwind uwtable
define internal noundef ptr @sys_set_asyncgen_hooks(ptr readnone captures(none) %0, ptr noundef %1, ptr noundef %2) #0 {
  %4 = alloca ptr, align 8
  %5 = alloca ptr, align 8
  call void @llvm.lifetime.start.p0(i64 8, ptr nonnull %4) #15
  store ptr null, ptr %4, align 8, !tbaa !93
  call void @llvm.lifetime.start.p0(i64 8, ptr nonnull %5) #15
  store ptr null, ptr %5, align 8, !tbaa !93
  %6 = call i32 (ptr, ptr, ptr, ptr, ...) @PyArg_ParseTupleAndKeywords(ptr noundef %1, ptr noundef %2, ptr noundef nonnull @.str.133, ptr noundef nonnull @sys_set_asyncgen_hooks.keywords, ptr noundef nonnull %4, ptr noundef nonnull %5) #15
  %.not = icmp eq i32 %6, 0
  br i1 %.not, label %60, label %7

7:                                                ; preds = %3
  %8 = load ptr, ptr %5, align 8, !tbaa !93
  %9 = icmp ne ptr %8, null
  %10 = icmp ne ptr %8, @_Py_NoneStruct
  %or.cond = and i1 %9, %10
  br i1 %or.cond, label %11, label %20

11:                                               ; preds = %7
  %12 = call i32 @PyCallable_Check(ptr noundef nonnull %8) #15
  %.not15 = icmp eq i32 %12, 0
  br i1 %.not15, label %13, label %20

13:                                               ; preds = %11
  %14 = load ptr, ptr @PyExc_TypeError, align 8, !tbaa !93
  %15 = load ptr, ptr %5, align 8, !tbaa !93
  %16 = getelementptr i8, ptr %15, i64 8
  %.val17 = load ptr, ptr %16, align 8, !tbaa !96
  %17 = getelementptr inbounds nuw i8, ptr %.val17, i64 24
  %18 = load ptr, ptr %17, align 8, !tbaa !197
  %19 = call ptr (ptr, ptr, ...) @PyErr_Format(ptr noundef %14, ptr noundef nonnull @.str.134, ptr noundef %18) #15
  br label %60

20:                                               ; preds = %11, %7
  %21 = load ptr, ptr %4, align 8, !tbaa !93
  %22 = icmp ne ptr %21, null
  %23 = icmp ne ptr %21, @_Py_NoneStruct
  %or.cond3 = and i1 %22, %23
  br i1 %or.cond3, label %24, label %33

24:                                               ; preds = %20
  %25 = call i32 @PyCallable_Check(ptr noundef nonnull %21) #15
  %.not16 = icmp eq i32 %25, 0
  br i1 %.not16, label %26, label %33

26:                                               ; preds = %24
  %27 = load ptr, ptr @PyExc_TypeError, align 8, !tbaa !93
  %28 = load ptr, ptr %4, align 8, !tbaa !93
  %29 = getelementptr i8, ptr %28, i64 8
  %.val = load ptr, ptr %29, align 8, !tbaa !96
  %30 = getelementptr inbounds nuw i8, ptr %.val, i64 24
  %31 = load ptr, ptr %30, align 8, !tbaa !197
  %32 = call ptr (ptr, ptr, ...) @PyErr_Format(ptr noundef %27, ptr noundef nonnull @.str.135, ptr noundef %31) #15
  br label %60

33:                                               ; preds = %24, %20
  %34 = call ptr @_PyEval_GetAsyncGenFinalizer() #15
  %35 = load ptr, ptr %5, align 8, !tbaa !93
  %36 = icmp ne ptr %35, null
  %37 = icmp ne ptr %35, @_Py_NoneStruct
  %or.cond5 = and i1 %36, %37
  br i1 %or.cond5, label %38, label %41

38:                                               ; preds = %33
  %39 = call i32 @_PyEval_SetAsyncGenFinalizer(ptr noundef nonnull %35) #15
  %40 = icmp slt i32 %39, 0
  br i1 %40, label %60, label %46

41:                                               ; preds = %33
  %42 = icmp eq ptr %35, @_Py_NoneStruct
  br i1 %42, label %43, label %46

43:                                               ; preds = %41
  %44 = call i32 @_PyEval_SetAsyncGenFinalizer(ptr noundef null) #15
  %45 = icmp slt i32 %44, 0
  br i1 %45, label %60, label %46

46:                                               ; preds = %41, %43, %38
  %47 = load ptr, ptr %4, align 8, !tbaa !93
  %48 = icmp ne ptr %47, null
  %49 = icmp ne ptr %47, @_Py_NoneStruct
  %or.cond7 = and i1 %48, %49
  br i1 %or.cond7, label %50, label %53

50:                                               ; preds = %46
  %51 = call i32 @_PyEval_SetAsyncGenFirstiter(ptr noundef nonnull %47) #15
  %52 = icmp slt i32 %51, 0
  br i1 %52, label %58, label %60

53:                                               ; preds = %46
  %54 = icmp eq ptr %47, @_Py_NoneStruct
  br i1 %54, label %55, label %60

55:                                               ; preds = %53
  %56 = call i32 @_PyEval_SetAsyncGenFirstiter(ptr noundef null) #15
  %57 = icmp slt i32 %56, 0
  br i1 %57, label %58, label %60

58:                                               ; preds = %55, %50
  %59 = call i32 @_PyEval_SetAsyncGenFinalizer(ptr noundef %34) #15
  br label %60

60:                                               ; preds = %58, %38, %43, %53, %55, %50, %3, %26, %13
  %.0 = phi ptr [ null, %26 ], [ null, %13 ], [ null, %3 ], [ null, %58 ], [ null, %38 ], [ null, %43 ], [ @_Py_NoneStruct, %53 ], [ @_Py_NoneStruct, %55 ], [ @_Py_NoneStruct, %50 ]
  call void @llvm.lifetime.end.p0(i64 8, ptr nonnull %5) #15
  call void @llvm.lifetime.end.p0(i64 8, ptr nonnull %4) #15
  ret ptr %.0
}